target datalayout = "e-m:e-p270:32:32-p271:32:32-p272:64:64-i64:64-i128:128-f80:128-n8:16:32:64-S128"
target triple = "x86_64-pc-linux-gnu"

%struct.wtapng_block_s = type { i32, i32, ptr, ptr, ptr }
%struct.pcapng_block_header_s = type { i32, i32 }
%struct.wtap = type { ptr, ptr, i32, i32, i32, ptr, ptr, ptr, i32, ptr, ptr, ptr, ptr, ptr, ptr, ptr, ptr, ptr, ptr, i32, i32, ptr, ptr, ptr, ptr }
%struct.wtap_rec = type { i32, i32, i32, %struct.nstime_t, i32, %struct.nstime_t, i32, %union.anon, ptr, i32, %struct.Buffer }
%struct.nstime_t = type { i64, i32 }
%union.anon = type { %struct.wtap_packet_header }
%struct.wtap_packet_header = type { i32, i32, i32, i32, %union.wtap_pseudo_header }
%union.wtap_pseudo_header = type { %struct.erf_mc_phdr }
%struct.erf_mc_phdr = type { %struct.erf_phdr, [16 x %struct.erf_ehdr], %union.anon.1 }
%struct.erf_phdr = type { i64, i8, i8, i16, i16, i16 }
%struct.erf_ehdr = type { i64 }
%union.anon.1 = type { i32 }
%struct.Buffer = type { ptr, i64, i64, i64 }
%struct.wtap_systemd_journal_export_header = type { i32 }

@.str.49 = private unnamed_addr constant [84 x i8] c"pcapng: total block length %u of a systemd journal export block is too small (< %u)\00", align 1
@.str.50 = private unnamed_addr constant [44 x i8] c"pcapng: entry length %u is too small (< %u)\00", align 1
@.str.51 = private unnamed_addr constant [22 x i8] c"__REALTIME_TIMESTAMP=\00", align 1

; Function Attrs: nounwind uwtable
define internal i32 @pcapng_read_systemd_journal_export_block(ptr noundef %0, ptr noundef %1, ptr noundef %2, ptr noundef %3, ptr noundef %4, ptr noundef %5, ptr noundef %6) #0 {
  %8 = alloca i32, align 4
  %9 = alloca ptr, align 8
  %10 = alloca ptr, align 8
  %11 = alloca ptr, align 8
  %12 = alloca ptr, align 8
  %13 = alloca ptr, align 8
  %14 = alloca ptr, align 8
  %15 = alloca ptr, align 8
  %16 = alloca i32, align 4
  %17 = alloca i64, align 8
  %18 = alloca i32, align 4
  %19 = alloca ptr, align 8
  %20 = alloca i64, align 8
  %21 = alloca ptr, align 8
  %22 = alloca ptr, align 8
  store ptr %0, ptr %9, align 8
  store ptr %1, ptr %10, align 8
  store ptr %2, ptr %11, align 8
  store ptr %3, ptr %12, align 8
  store ptr %4, ptr %13, align 8
  store ptr %5, ptr %14, align 8
  store ptr %6, ptr %15, align 8
  store i32 0, ptr %18, align 4
  %23 = load ptr, ptr %11, align 8
  %24 = getelementptr inbounds %struct.pcapng_block_header_s, ptr %23, i32 0, i32 1
  %25 = load i32, ptr %24, align 4
  %26 = icmp ult i32 %25, 35
  br i1 %26, label %27, label %34

27:                                               ; preds = %7
  %28 = load ptr, ptr %14, align 8
  store i32 -13, ptr %28, align 4
  %29 = load ptr, ptr %11, align 8
  %30 = getelementptr inbounds %struct.pcapng_block_header_s, ptr %29, i32 0, i32 1
  %31 = load i32, ptr %30, align 4
  %32 = call noalias ptr (ptr, ptr, ...) @wmem_strdup_printf(ptr noundef null, ptr noundef @.str.49, i32 noundef %31, i32 noundef 35)
  %33 = load ptr, ptr %15, align 8
  store ptr %32, ptr %33, align 8
  store i32 0, ptr %8, align 4
  br label %188

34:                                               ; preds = %7
  %35 = load ptr, ptr %11, align 8
  %36 = getelementptr inbounds %struct.pcapng_block_header_s, ptr %35, i32 0, i32 1
  %37 = load i32, ptr %36, align 4
  %38 = sub i32 %37, 12
  store i32 %38, ptr %16, align 4
  %39 = load ptr, ptr %10, align 8
  %40 = load ptr, ptr %13, align 8
  %41 = getelementptr inbounds %struct.wtapng_block_s, ptr %40, i32 0, i32 4
  %42 = load ptr, ptr %41, align 8
  %43 = load i32, ptr %16, align 4
  %44 = load ptr, ptr %14, align 8
  %45 = load ptr, ptr %15, align 8
  %46 = call i32 @wtap_read_packet_bytes(ptr noundef %39, ptr noundef %42, i32 noundef %43, ptr noundef %44, ptr noundef %45)
  %47 = icmp ne i32 %46, 0
  br i1 %47, label %49, label %48

48:                                               ; preds = %34
  store i32 0, ptr %8, align 4
  br label %188

49:                                               ; preds = %34
  %50 = load ptr, ptr %13, align 8
  %51 = getelementptr inbounds %struct.wtapng_block_s, ptr %50, i32 0, i32 4
  %52 = load ptr, ptr %51, align 8
  %53 = load i32, ptr %16, align 4
  %54 = add i32 %53, 1
  %55 = zext i32 %54 to i64
  call void @ws_buffer_assure_space(ptr noundef %52, i64 noundef %55)
  %56 = load ptr, ptr %13, align 8
  %57 = getelementptr inbounds %struct.wtapng_block_s, ptr %56, i32 0, i32 4
  %58 = load ptr, ptr %57, align 8
  %59 = getelementptr inbounds %struct.Buffer, ptr %58, i32 0, i32 0
  %60 = load ptr, ptr %59, align 8
  %61 = load ptr, ptr %13, align 8
  %62 = getelementptr inbounds %struct.wtapng_block_s, ptr %61, i32 0, i32 4
  %63 = load ptr, ptr %62, align 8
  %64 = getelementptr inbounds %struct.Buffer, ptr %63, i32 0, i32 2
  %65 = load i64, ptr %64, align 8
  %66 = getelementptr i8, ptr %60, i64 %65
  store ptr %66, ptr %19, align 8
  br label %67

67:                                               ; preds = %81, %49
  %68 = load i32, ptr %16, align 4
  %69 = icmp ugt i32 %68, 0
  br i1 %69, label %70, label %79

70:                                               ; preds = %67
  %71 = load ptr, ptr %19, align 8
  %72 = load i32, ptr %16, align 4
  %73 = sub i32 %72, 1
  %74 = zext i32 %73 to i64
  %75 = getelementptr i8, ptr %71, i64 %74
  %76 = load i8, ptr %75, align 1
  %77 = sext i8 %76 to i32
  %78 = icmp eq i32 %77, 0
  br label %79

79:                                               ; preds = %70, %67
  %80 = phi i1 [ false, %67 ], [ %78, %70 ]
  br i1 %80, label %81, label %84

81:                                               ; preds = %79
  %82 = load i32, ptr %16, align 4
  %83 = add i32 %82, -1
  store i32 %83, ptr %16, align 4
  br label %67, !llvm.loop !11

84:                                               ; preds = %79
  %85 = load i32, ptr %16, align 4
  %86 = icmp ult i32 %85, 23
  br i1 %86, label %87, label %94

87:                                               ; preds = %84
  %88 = load ptr, ptr %14, align 8
  store i32 -13, ptr %88, align 4
  %89 = load ptr, ptr %11, align 8
  %90 = getelementptr inbounds %struct.pcapng_block_header_s, ptr %89, i32 0, i32 1
  %91 = load i32, ptr %90, align 4
  %92 = call noalias ptr (ptr, ptr, ...) @wmem_strdup_printf(ptr noundef null, ptr noundef @.str.50, i32 noundef %91, i32 noundef 23)
  %93 = load ptr, ptr %15, align 8
  store ptr %92, ptr %93, align 8
  store i32 0, ptr %8, align 4
  br label %188

94:                                               ; preds = %84
  br label %95

95:                                               ; preds = %94
  br label %96

96:                                               ; preds = %95
  store i64 21, ptr %20, align 8
  %97 = load ptr, ptr %19, align 8
  %98 = load i32, ptr %16, align 4
  %99 = zext i32 %98 to i64
  %100 = getelementptr i8, ptr %97, i64 %99
  store i8 0, ptr %100, align 1
  %101 = load ptr, ptr %19, align 8
  %102 = call ptr @strstr(ptr noundef %101, ptr noundef @.str.51) #12
  store ptr %102, ptr %21, align 8
  %103 = load ptr, ptr %21, align 8
  %104 = icmp ne ptr %103, null
  br i1 %104, label %108, label %105

105:                                              ; preds = %96
  br label %106

106:                                              ; preds = %105
  br label %107

107:                                              ; preds = %106
  br label %133

108:                                              ; preds = %96
  %109 = load ptr, ptr %21, align 8
  %110 = load i64, ptr %20, align 8
  %111 = getelementptr i8, ptr %109, i64 %110
  %112 = load ptr, ptr %19, align 8
  %113 = load i32, ptr %16, align 4
  %114 = zext i32 %113 to i64
  %115 = getelementptr i8, ptr %112, i64 %114
  %116 = icmp uge ptr %111, %115
  br i1 %116, label %117, label %120

117:                                              ; preds = %108
  br label %118

118:                                              ; preds = %117
  br label %119

119:                                              ; preds = %118
  br label %132

120:                                              ; preds = %108
  %121 = load ptr, ptr %21, align 8
  %122 = load i64, ptr %20, align 8
  %123 = getelementptr i8, ptr %121, i64 %122
  %124 = call zeroext i1 @ws_strtou64(ptr noundef %123, ptr noundef %22, ptr noundef %17)
  %125 = zext i1 %124 to i32
  store i32 %125, ptr %18, align 4
  %126 = load i32, ptr %18, align 4
  %127 = icmp ne i32 %126, 0
  br i1 %127, label %131, label %128

128:                                              ; preds = %120
  br label %129

129:                                              ; preds = %128
  br label %130

130:                                              ; preds = %129
  br label %131

131:                                              ; preds = %130, %120
  br label %132

132:                                              ; preds = %131, %119
  br label %133

133:                                              ; preds = %132, %107
  %134 = load ptr, ptr %13, align 8
  %135 = getelementptr inbounds %struct.wtapng_block_s, ptr %134, i32 0, i32 3
  %136 = load ptr, ptr %135, align 8
  %137 = getelementptr inbounds %struct.wtap_rec, ptr %136, i32 0, i32 0
  store i32 4, ptr %137, align 8
  %138 = load i32, ptr %16, align 4
  %139 = load ptr, ptr %13, align 8
  %140 = getelementptr inbounds %struct.wtapng_block_s, ptr %139, i32 0, i32 3
  %141 = load ptr, ptr %140, align 8
  %142 = getelementptr inbounds %struct.wtap_rec, ptr %141, i32 0, i32 7
  %143 = getelementptr inbounds %struct.wtap_systemd_journal_export_header, ptr %142, i32 0, i32 0
  store i32 %138, ptr %143, align 8
  %144 = load ptr, ptr %13, align 8
  %145 = getelementptr inbounds %struct.wtapng_block_s, ptr %144, i32 0, i32 3
  %146 = load ptr, ptr %145, align 8
  %147 = getelementptr inbounds %struct.wtap_rec, ptr %146, i32 0, i32 1
  store i32 2, ptr %147, align 4
  %148 = load i32, ptr %18, align 4
  %149 = icmp ne i32 %148, 0
  br i1 %149, label %150, label %177

150:                                              ; preds = %133
  %151 = load ptr, ptr %13, align 8
  %152 = getelementptr inbounds %struct.wtapng_block_s, ptr %151, i32 0, i32 3
  %153 = load ptr, ptr %152, align 8
  %154 = getelementptr inbounds %struct.wtap_rec, ptr %153, i32 0, i32 1
  %155 = load i32, ptr %154, align 4
  %156 = or i32 %155, 1
  store i32 %156, ptr %154, align 4
  %157 = load ptr, ptr %13, align 8
  %158 = getelementptr inbounds %struct.wtapng_block_s, ptr %157, i32 0, i32 3
  %159 = load ptr, ptr %158, align 8
  %160 = getelementptr inbounds %struct.wtap_rec, ptr %159, i32 0, i32 4
  store i32 6, ptr %160, align 8
  %161 = load i64, ptr %17, align 8
  %162 = udiv i64 %161, 1000000
  %163 = load ptr, ptr %13, align 8
  %164 = getelementptr inbounds %struct.wtapng_block_s, ptr %163, i32 0, i32 3
  %165 = load ptr, ptr %164, align 8
  %166 = getelementptr inbounds %struct.wtap_rec, ptr %165, i32 0, i32 3
  %167 = getelementptr inbounds %struct.nstime_t, ptr %166, i32 0, i32 0
  store i64 %162, ptr %167, align 8
  %168 = load i64, ptr %17, align 8
  %169 = urem i64 %168, 1000000
  %170 = mul i64 %169, 1000
  %171 = trunc i64 %170 to i32
  %172 = load ptr, ptr %13, align 8
  %173 = getelementptr inbounds %struct.wtapng_block_s, ptr %172, i32 0, i32 3
  %174 = load ptr, ptr %173, align 8
  %175 = getelementptr inbounds %struct.wtap_rec, ptr %174, i32 0, i32 3
  %176 = getelementptr inbounds %struct.nstime_t, ptr %175, i32 0, i32 1
  store i32 %171, ptr %176, align 8
  br label %177

177:                                              ; preds = %150, %133
  %178 = load ptr, ptr %13, align 8
  %179 = getelementptr inbounds %struct.wtapng_block_s, ptr %178, i32 0, i32 1
  store i32 0, ptr %179, align 4
  %180 = load ptr, ptr %9, align 8
  %181 = getelementptr inbounds %struct.wtap, ptr %180, i32 0, i32 19
  %182 = load i32, ptr %181, align 8
  %183 = icmp eq i32 %182, -2
  br i1 %183, label %184, label %187

184:                                              ; preds = %177
  %185 = load ptr, ptr %9, align 8
  %186 = getelementptr inbounds %struct.wtap, ptr %185, i32 0, i32 19
  store i32 -1, ptr %186, align 8
  br label %187

187:                                              ; preds = %184, %177
  store i32 1, ptr %8, align 4
  br label %188

188:                                              ; preds = %187, %87, %48, %27
  %189 = load i32, ptr %8, align 4
  ret i32 %189
}