; Function Attrs: nounwind uwtable
define internal fastcc range(i32 0, 2) i32 @pcapng_read_systemd_journal_export_block(ptr noundef captures(none) %0, ptr noundef %1, ptr noundef nonnull readonly captures(none) %2, ptr noundef nonnull captures(none) %3, ptr noundef %4, ptr noundef %5) unnamed_addr #0 {
  %7 = alloca i64, align 8
  %8 = alloca ptr, align 8
  %9 = getelementptr inbounds nuw i8, ptr %2, i64 4
  %10 = load i32, ptr %9, align 4
  %11 = icmp ult i32 %10, 35
  br i1 %11, label %12, label %15

12:                                               ; preds = %6
  store i32 -13, ptr %4, align 4
  %13 = load i32, ptr %9, align 4
  %14 = tail call noalias ptr (ptr, ptr, ...) @wmem_strdup_printf(ptr noundef null, ptr noundef nonnull @.str.49, i32 noundef %13, i32 noundef 35) #16
  store ptr %14, ptr %5, align 8
  br label %82

15:                                               ; preds = %6
  %16 = add i32 %10, -12
  %17 = getelementptr inbounds nuw i8, ptr %3, i64 24
  %18 = load ptr, ptr %17, align 8
  %19 = tail call i32 @wtap_read_packet_bytes(ptr noundef %1, ptr noundef %18, i32 noundef %16, ptr noundef %4, ptr noundef %5) #16
  %.not = icmp eq i32 %19, 0
  br i1 %.not, label %82, label %20

20:                                               ; preds = %15
  %21 = load ptr, ptr %17, align 8
  %22 = add i32 %10, -11
  %23 = zext i32 %22 to i64
  tail call void @ws_buffer_assure_space(ptr noundef %21, i64 noundef %23) #16
  %24 = load ptr, ptr %17, align 8
  %25 = load ptr, ptr %24, align 8
  %26 = getelementptr inbounds nuw i8, ptr %24, i64 16
  %27 = load i64, ptr %26, align 8
  %28 = getelementptr i8, ptr %25, i64 %27
  %29 = zext i32 %16 to i64
  br label %30

30:                                               ; preds = %31, %20
  %indvars.iv = phi i64 [ %32, %31 ], [ %29, %20 ]
  %.not50 = icmp eq i64 %indvars.iv, 0
  br i1 %.not50, label %.critedge.thread, label %31

31:                                               ; preds = %30
  %32 = add nsw i64 %indvars.iv, -1
  %33 = getelementptr i8, ptr %28, i64 %32
  %34 = load i8, ptr %33, align 1
  %35 = icmp eq i8 %34, 0
  br i1 %35, label %30, label %.critedge, !llvm.loop !11

.critedge:                                        ; preds = %31
  %36 = trunc nuw i64 %indvars.iv to i32
  %37 = icmp ult i64 %indvars.iv, 23
  br i1 %37, label %.critedge.thread, label %40

.critedge.thread:                                 ; preds = %30, %.critedge
  store i32 -13, ptr %4, align 4
  %38 = load i32, ptr %9, align 4
  %39 = tail call noalias ptr (ptr, ptr, ...) @wmem_strdup_printf(ptr noundef null, ptr noundef nonnull @.str.50, i32 noundef %38, i32 noundef 23) #16
  store ptr %39, ptr %5, align 8
  br label %82

40:                                               ; preds = %.critedge
  %41 = and i64 %indvars.iv, 4294967295
  %42 = getelementptr i8, ptr %28, i64 %41
  store i8 0, ptr %42, align 1
  %43 = tail call ptr @strstr(ptr noundef nonnull dereferenceable(1) %28, ptr noundef nonnull dereferenceable(1) @.str.51) #19
  %.not51 = icmp eq ptr %43, null
  br i1 %.not51, label %.thread, label %44

44:                                               ; preds = %40
  %45 = getelementptr i8, ptr %43, i64 21
  %.not52 = icmp ult ptr %45, %42
  br i1 %.not52, label %52, label %.thread

.thread:                                          ; preds = %44, %40
  %46 = getelementptr inbounds nuw i8, ptr %3, i64 16
  %47 = load ptr, ptr %46, align 8
  store i32 4, ptr %47, align 8
  %48 = load ptr, ptr %46, align 8
  %49 = getelementptr inbounds nuw i8, ptr %48, i64 64
  store i32 %36, ptr %49, align 8
  %50 = load ptr, ptr %46, align 8
  %51 = getelementptr inbounds nuw i8, ptr %50, i64 4
  store i32 2, ptr %51, align 4
  br label %76

52:                                               ; preds = %44
  %53 = call zeroext i1 @ws_strtou64(ptr noundef %45, ptr noundef nonnull %8, ptr noundef nonnull %7) #16
  %54 = getelementptr inbounds nuw i8, ptr %3, i64 16
  %55 = load ptr, ptr %54, align 8
  store i32 4, ptr %55, align 8
  %56 = load ptr, ptr %54, align 8
  %57 = getelementptr inbounds nuw i8, ptr %56, i64 64
  store i32 %36, ptr %57, align 8
  %58 = load ptr, ptr %54, align 8
  %59 = getelementptr inbounds nuw i8, ptr %58, i64 4
  store i32 2, ptr %59, align 4
  br i1 %53, label %60, label %76

60:                                               ; preds = %52
  %61 = load ptr, ptr %54, align 8
  %62 = getelementptr inbounds nuw i8, ptr %61, i64 4
  %63 = load i32, ptr %62, align 4
  %64 = or i32 %63, 1
  store i32 %64, ptr %62, align 4
  %65 = load ptr, ptr %54, align 8
  %66 = getelementptr inbounds nuw i8, ptr %65, i64 32
  store i32 6, ptr %66, align 8
  %67 = load i64, ptr %7, align 8
  %68 = udiv i64 %67, 1000000
  %69 = load ptr, ptr %54, align 8
  %70 = getelementptr inbounds nuw i8, ptr %69, i64 16
  store i64 %68, ptr %70, align 8
  %71 = urem i64 %67, 1000000
  %72 = trunc nuw nsw i64 %71 to i32
  %73 = mul nuw nsw i32 %72, 1000
  %74 = load ptr, ptr %54, align 8
  %75 = getelementptr inbounds nuw i8, ptr %74, i64 24
  store i32 %73, ptr %75, align 8
  br label %76

76:                                               ; preds = %.thread, %60, %52
  %77 = getelementptr inbounds nuw i8, ptr %3, i64 4
  store i32 0, ptr %77, align 4
  %78 = getelementptr inbounds nuw i8, ptr %0, i64 144
  %79 = load i32, ptr %78, align 8
  %80 = icmp eq i32 %79, -2
  br i1 %80, label %81, label %82

81:                                               ; preds = %76
  store i32 -1, ptr %78, align 8
  br label %82

82:                                               ; preds = %76, %81, %15, %.critedge.thread, %12
  %.0 = phi i32 [ 0, %12 ], [ 0, %.critedge.thread ], [ 0, %15 ], [ 1, %81 ], [ 1, %76 ]
  ret i32 %.0
}